; ModuleID = '23/395.c'
source_filename = "23/395.c"
target datalayout = "e-m:e-p270:32:32-p271:32:32-p272:64:64-i64:64-f80:128-n8:16:32:64-S128"
target triple = "x86_64-pc-linux-gnu"

; Function Attrs: noinline nounwind uwtable
define dso_local i32 @main() #0 {
  %1 = alloca i32, align 4
  %2 = alloca i32, align 4
  %3 = alloca i32, align 4
  %4 = alloca i32, align 4
  %5 = alloca i32, align 4
  %6 = alloca i32, align 4
  %7 = alloca i32, align 4
  %8 = alloca [100 x i8], align 16
  %9 = alloca [100 x i8], align 16
  store i32 0, i32* %1, align 4
  store i32 0, i32* %7, align 4
  %10 = getelementptr inbounds [100 x i8], [100 x i8]* %8, i64 0, i64 0
  %11 = call i32 (i8*, ...) bitcast (i32 (...)* @gets to i32 (i8*, ...)*)(i8* %10)
  %12 = getelementptr inbounds [100 x i8], [100 x i8]* %8, i64 0, i64 0
  %13 = call i64 @strlen(i8* %12) #3
  %14 = trunc i64 %13 to i32
  store i32 %14, i32* %2, align 4
  %15 = load i32, i32* %2, align 4
  %16 = sext i32 %15 to i64
  %17 = getelementptr inbounds [100 x i8], [100 x i8]* %9, i64 0, i64 %16
  store i8 0, i8* %17, align 1
  store i32 0, i32* %3, align 4
  br label %18

18:                                               ; preds = %111, %0
  %19 = load i32, i32* %3, align 4
  %20 = load i32, i32* %2, align 4
  %21 = icmp slt i32 %19, %20
  br i1 %21, label %22, label %114

22:                                               ; preds = %18
  %23 = getelementptr inbounds [100 x i8], [100 x i8]* %8, i64 0, i64 0
  %24 = icmp ugt i8* %23, null
  br i1 %24, label %25, label %33

25:                                               ; preds = %22
  %26 = load i32, i32* %3, align 4
  %27 = sub nsw i32 %26, 1
  %28 = sext i32 %27 to i64
  %29 = getelementptr inbounds [100 x i8], [100 x i8]* %8, i64 0, i64 %28
  %30 = load i8, i8* %29, align 1
  %31 = sext i8 %30 to i32
  %32 = icmp eq i32 %31, 32
  br i1 %32, label %43, label %33

33:                                               ; preds = %25, %22
  %34 = load i32, i32* %3, align 4
  %35 = icmp eq i32 %34, 0
  br i1 %35, label %36, label %91

36:                                               ; preds = %33
  %37 = load i32, i32* %3, align 4
  %38 = sext i32 %37 to i64
  %39 = getelementptr inbounds [100 x i8], [100 x i8]* %8, i64 0, i64 %38
  %40 = load i8, i8* %39, align 1
  %41 = sext i8 %40 to i32
  %42 = icmp ne i32 %41, 32
  br i1 %42, label %43, label %91

43:                                               ; preds = %36, %25
  %44 = load i32, i32* %3, align 4
  store i32 %44, i32* %4, align 4
  br label %45

45:                                               ; preds = %58, %43
  %46 = load i32, i32* %4, align 4
  %47 = load i32, i32* %2, align 4
  %48 = icmp slt i32 %46, %47
  br i1 %48, label %49, label %61

49:                                               ; preds = %45
  %50 = load i32, i32* %4, align 4
  %51 = sext i32 %50 to i64
  %52 = getelementptr inbounds [100 x i8], [100 x i8]* %8, i64 0, i64 %51
  %53 = load i8, i8* %52, align 1
  %54 = sext i8 %53 to i32
  %55 = icmp eq i32 %54, 32
  br i1 %55, label %56, label %57

56:                                               ; preds = %49
  br label %61

57:                                               ; preds = %49
  br label %58

58:                                               ; preds = %57
  %59 = load i32, i32* %4, align 4
  %60 = add nsw i32 %59, 1
  store i32 %60, i32* %4, align 4
  br label %45

61:                                               ; preds = %56, %45
  %62 = load i32, i32* %4, align 4
  %63 = load i32, i32* %3, align 4
  %64 = sub nsw i32 %62, %63
  store i32 %64, i32* %6, align 4
  %65 = load i32, i32* %7, align 4
  %66 = load i32, i32* %6, align 4
  %67 = add nsw i32 %65, %66
  store i32 %67, i32* %7, align 4
  %68 = load i32, i32* %3, align 4
  store i32 %68, i32* %5, align 4
  br label %69

69:                                               ; preds = %87, %61
  %70 = load i32, i32* %5, align 4
  %71 = load i32, i32* %4, align 4
  %72 = icmp slt i32 %70, %71
  br i1 %72, label %73, label %90

73:                                               ; preds = %69
  %74 = load i32, i32* %5, align 4
  %75 = sext i32 %74 to i64
  %76 = getelementptr inbounds [100 x i8], [100 x i8]* %8, i64 0, i64 %75
  %77 = load i8, i8* %76, align 1
  %78 = load i32, i32* %2, align 4
  %79 = load i32, i32* %7, align 4
  %80 = sub nsw i32 %78, %79
  %81 = load i32, i32* %5, align 4
  %82 = add nsw i32 %80, %81
  %83 = load i32, i32* %3, align 4
  %84 = sub nsw i32 %82, %83
  %85 = sext i32 %84 to i64
  %86 = getelementptr inbounds [100 x i8], [100 x i8]* %9, i64 0, i64 %85
  store i8 %77, i8* %86, align 1
  br label %87

87:                                               ; preds = %73
  %88 = load i32, i32* %5, align 4
  %89 = add nsw i32 %88, 1
  store i32 %89, i32* %5, align 4
  br label %69

90:                                               ; preds = %69
  br label %91

91:                                               ; preds = %90, %36, %33
  %92 = load i32, i32* %3, align 4
  %93 = sext i32 %92 to i64
  %94 = getelementptr inbounds [100 x i8], [100 x i8]* %8, i64 0, i64 %93
  %95 = load i8, i8* %94, align 1
  %96 = sext i8 %95 to i32
  %97 = icmp eq i32 %96, 32
  br i1 %97, label %98, label %110

98:                                               ; preds = %91
  %99 = load i32, i32* %7, align 4
  %100 = add nsw i32 %99, 1
  store i32 %100, i32* %7, align 4
  %101 = load i32, i32* %3, align 4
  %102 = sext i32 %101 to i64
  %103 = getelementptr inbounds [100 x i8], [100 x i8]* %8, i64 0, i64 %102
  %104 = load i8, i8* %103, align 1
  %105 = load i32, i32* %2, align 4
  %106 = load i32, i32* %7, align 4
  %107 = sub nsw i32 %105, %106
  %108 = sext i32 %107 to i64
  %109 = getelementptr inbounds [100 x i8], [100 x i8]* %9, i64 0, i64 %108
  store i8 %104, i8* %109, align 1
  br label %110

110:                                              ; preds = %98, %91
  br label %111

111:                                              ; preds = %110
  %112 = load i32, i32* %3, align 4
  %113 = add nsw i32 %112, 1
  store i32 %113, i32* %3, align 4
  br label %18

114:                                              ; preds = %18
  %115 = getelementptr inbounds [100 x i8], [100 x i8]* %9, i64 0, i64 0
  %116 = call i32 @puts(i8* %115)
  ret i32 0
}

declare dso_local i32 @gets(...) #1

; Function Attrs: nounwind readonly
declare dso_local i64 @strlen(i8*) #2

declare dso_local i32 @puts(i8*) #1


!llvm.module.flags = !{!0}
!llvm.ident = !{!1}

!0 = !{i32 1, !"wchar_size", i32 4}
!1 = !{!"clang version 10.0.0-4ubuntu1 "}
